target datalayout = "e-m:e-p270:32:32-p271:32:32-p272:64:64-i64:64-i128:128-f80:128-n8:16:32:64-S128"
target triple = "x86_64-pc-linux-gnu"

%struct.cli_ctx_tag = type { ptr, ptr, ptr, ptr, ptr, ptr, ptr, i64, ptr, i32, i32, ptr, i32, i32, ptr, [16 x i8], ptr, ptr, ptr, ptr, ptr, ptr, %struct.timeval, i8, i8 }
%struct.timeval = type { i64, i64 }

@.str.102 = private unnamed_addr constant [47 x i8] c"Invalid arguments for file scan result check.\0A\00", align 1
@.str.103 = private unnamed_addr constant [53 x i8] c"Descriptor[%d]: halting after file scan because: %s\0A\00", align 1
@.str.104 = private unnamed_addr constant [62 x i8] c"Descriptor[%d]: Continuing after file scan resulted with: %s\0A\00", align 1

; Function Attrs: nounwind uwtable
define internal zeroext i1 @result_should_goto_done(ptr noundef %0, i32 noundef %1, ptr noundef %2) #0 {
  %4 = alloca ptr, align 8
  %5 = alloca i32, align 4
  %6 = alloca ptr, align 8
  %7 = alloca i8, align 1
  store ptr %0, ptr %4, align 8
  store i32 %1, ptr %5, align 4
  store ptr %2, ptr %6, align 8
  store i8 0, ptr %7, align 1
  %8 = load ptr, ptr %4, align 8
  %9 = icmp eq ptr null, %8
  br i1 %9, label %13, label %10

10:                                               ; preds = %3
  %11 = load ptr, ptr %6, align 8
  %12 = icmp eq ptr null, %11
  br i1 %12, label %13, label %14

13:                                               ; preds = %10, %3
  call void (ptr, ...) @cli_dbgmsg(ptr noundef @.str.102)
  store i8 1, ptr %7, align 1
  br label %52

14:                                               ; preds = %10
  %15 = load ptr, ptr %4, align 8
  %16 = icmp ne ptr null, %15
  br i1 %16, label %17, label %23

17:                                               ; preds = %14
  %18 = load ptr, ptr %4, align 8
  %19 = getelementptr inbounds %struct.cli_ctx_tag, ptr %18, i32 0, i32 24
  %20 = load i8, ptr %19, align 1
  %21 = trunc i8 %20 to i1
  br i1 %21, label %22, label %23

22:                                               ; preds = %17
  store i8 1, ptr %7, align 1
  br label %23

23:                                               ; preds = %22, %17, %14
  %24 = load i32, ptr %5, align 4
  switch i32 %24, label %43 [
    i32 1, label %25
    i32 10, label %25
    i32 11, label %25
    i32 13, label %25
    i32 14, label %25
    i32 15, label %25
    i32 17, label %25
    i32 18, label %25
    i32 20, label %25
    i32 21, label %34
    i32 33, label %34
    i32 0, label %42
    i32 23, label %42
    i32 24, label %42
    i32 25, label %42
    i32 26, label %42
    i32 27, label %42
    i32 12, label %42
    i32 7, label %42
  ]

25:                                               ; preds = %23, %23, %23, %23, %23, %23, %23, %23, %23
  %26 = load ptr, ptr %4, align 8
  %27 = getelementptr inbounds %struct.cli_ctx_tag, ptr %26, i32 0, i32 14
  %28 = load ptr, ptr %27, align 8
  %29 = call i32 @fmap_fd(ptr noundef %28)
  %30 = load i32, ptr %5, align 4
  %31 = call ptr @cl_strerror(i32 noundef %30)
  call void (ptr, ...) @cli_dbgmsg(ptr noundef @.str.103, i32 noundef %29, ptr noundef %31)
  store i8 1, ptr %7, align 1
  %32 = load i32, ptr %5, align 4
  %33 = load ptr, ptr %6, align 8
  store i32 %32, ptr %33, align 4
  br label %51

34:                                               ; preds = %23, %23
  %35 = load ptr, ptr %4, align 8
  %36 = getelementptr inbounds %struct.cli_ctx_tag, ptr %35, i32 0, i32 14
  %37 = load ptr, ptr %36, align 8
  %38 = call i32 @fmap_fd(ptr noundef %37)
  %39 = load i32, ptr %5, align 4
  %40 = call ptr @cl_strerror(i32 noundef %39)
  call void (ptr, ...) @cli_dbgmsg(ptr noundef @.str.103, i32 noundef %38, ptr noundef %40)
  store i8 1, ptr %7, align 1
  %41 = load ptr, ptr %6, align 8
  store i32 0, ptr %41, align 4
  br label %51

42:                                               ; preds = %23, %23, %23, %23, %23, %23, %23, %23
  br label %43

43:                                               ; preds = %42, %23
  %44 = load ptr, ptr %4, align 8
  %45 = getelementptr inbounds %struct.cli_ctx_tag, ptr %44, i32 0, i32 14
  %46 = load ptr, ptr %45, align 8
  %47 = call i32 @fmap_fd(ptr noundef %46)
  %48 = load i32, ptr %5, align 4
  %49 = call ptr @cl_strerror(i32 noundef %48)
  call void (ptr, ...) @cli_dbgmsg(ptr noundef @.str.104, i32 noundef %47, ptr noundef %49)
  %50 = load ptr, ptr %6, align 8
  store i32 0, ptr %50, align 4
  br label %51

51:                                               ; preds = %43, %34, %25
  br label %52

52:                                               ; preds = %51, %13
  %53 = load i8, ptr %7, align 1
  %54 = trunc i8 %53 to i1
  ret i1 %54
}