; Function Attrs: nounwind uwtable
define internal fastcc zeroext i1 @result_should_goto_done(ptr noundef readonly %0, i32 noundef %1, ptr noundef nonnull writeonly captures(none) %2) unnamed_addr #0 {
  %4 = icmp eq ptr %0, null
  br i1 %4, label %5, label %6

5:                                                ; preds = %3
  tail call void (ptr, ...) @cli_dbgmsg(ptr noundef nonnull @.str.102) #16
  br label %25

6:                                                ; preds = %3
  switch i32 %1, label %17 [
    i32 1, label %7
    i32 10, label %7
    i32 11, label %7
    i32 13, label %7
    i32 14, label %7
    i32 15, label %7
    i32 17, label %7
    i32 18, label %7
    i32 20, label %7
    i32 21, label %12
    i32 33, label %12
  ]

7:                                                ; preds = %6, %6, %6, %6, %6, %6, %6, %6, %6
  %8 = getelementptr inbounds nuw i8, ptr %0, i64 96
  %9 = load ptr, ptr %8, align 8
  %10 = tail call i32 @fmap_fd(ptr noundef %9) #16
  %11 = tail call ptr @cl_strerror(i32 noundef %1) #16
  tail call void (ptr, ...) @cli_dbgmsg(ptr noundef nonnull @.str.103, i32 noundef %10, ptr noundef %11) #16
  store i32 %1, ptr %2, align 4
  br label %25

12:                                               ; preds = %6, %6
  %13 = getelementptr inbounds nuw i8, ptr %0, i64 96
  %14 = load ptr, ptr %13, align 8
  %15 = tail call i32 @fmap_fd(ptr noundef %14) #16
  %16 = tail call ptr @cl_strerror(i32 noundef %1) #16
  tail call void (ptr, ...) @cli_dbgmsg(ptr noundef nonnull @.str.103, i32 noundef %15, ptr noundef %16) #16
  store i32 0, ptr %2, align 4
  br label %25

17:                                               ; preds = %6
  %18 = getelementptr inbounds nuw i8, ptr %0, i64 185
  %19 = load i8, ptr %18, align 1
  %20 = trunc i8 %19 to i1
  %21 = getelementptr inbounds nuw i8, ptr %0, i64 96
  %22 = load ptr, ptr %21, align 8
  %23 = tail call i32 @fmap_fd(ptr noundef %22) #16
  %24 = tail call ptr @cl_strerror(i32 noundef %1) #16
  tail call void (ptr, ...) @cli_dbgmsg(ptr noundef nonnull @.str.104, i32 noundef %23, ptr noundef %24) #16
  store i32 0, ptr %2, align 4
  br label %25

25:                                               ; preds = %7, %12, %17, %5
  %.0 = phi i1 [ true, %5 ], [ %20, %17 ], [ true, %12 ], [ true, %7 ]
  ret i1 %.0
}